target datalayout = "e-m:e-p270:32:32-p271:32:32-p272:64:64-i64:64-i128:128-f80:128-n8:16:32:64-S128"
target triple = "x86_64-pc-linux-gnu"

; Function Attrs: mustprogress nounwind uwtable
define internal noundef i32 @_ZL10XXH_read32PKv(ptr noundef %0) #4 {
  %2 = alloca ptr, align 8
  store ptr %0, ptr %2, align 8, !tbaa !4
  %3 = load ptr, ptr %2, align 8, !tbaa !4
  %4 = load i32, ptr %3, align 1, !tbaa !10
  ret i32 %4
}

; Function Attrs: alwaysinline mustprogress uwtable
define internal noundef i32 @_ZL12XXH_readLE32PKv(ptr noundef %0) #7 {
  %2 = alloca ptr, align 8
  store ptr %0, ptr %2, align 8, !tbaa !4
  %3 = load ptr, ptr %2, align 8, !tbaa !4
  %4 = call noundef i32 @_ZL10XXH_read32PKv(ptr noundef %3)
  ret i32 %4
}

; Function Attrs: mustprogress nounwind uwtable
define internal noundef i64 @_ZL10XXH_read64PKv(ptr noundef %0) #4 {
  %2 = alloca ptr, align 8
  store ptr %0, ptr %2, align 8, !tbaa !4
  %3 = load ptr, ptr %2, align 8, !tbaa !4
  %4 = load i64, ptr %3, align 1, !tbaa !8
  ret i64 %4
}

; Function Attrs: mustprogress nounwind uwtable
define internal noundef i64 @_ZL15XXH64_avalanchem(i64 noundef %0) #4 {
  %2 = alloca i64, align 8
  store i64 %0, ptr %2, align 8, !tbaa !8
  %3 = load i64, ptr %2, align 8, !tbaa !8
  %4 = lshr i64 %3, 33
  %5 = load i64, ptr %2, align 8, !tbaa !8
  %6 = xor i64 %5, %4
  store i64 %6, ptr %2, align 8, !tbaa !8
  %7 = load i64, ptr %2, align 8, !tbaa !8
  %8 = mul i64 %7, -4417276706812531889
  store i64 %8, ptr %2, align 8, !tbaa !8
  %9 = load i64, ptr %2, align 8, !tbaa !8
  %10 = lshr i64 %9, 29
  %11 = load i64, ptr %2, align 8, !tbaa !8
  %12 = xor i64 %11, %10
  store i64 %12, ptr %2, align 8, !tbaa !8
  %13 = load i64, ptr %2, align 8, !tbaa !8
  %14 = mul i64 %13, 1609587929392839161
  store i64 %14, ptr %2, align 8, !tbaa !8
  %15 = load i64, ptr %2, align 8, !tbaa !8
  %16 = lshr i64 %15, 32
  %17 = load i64, ptr %2, align 8, !tbaa !8
  %18 = xor i64 %17, %16
  store i64 %18, ptr %2, align 8, !tbaa !8
  %19 = load i64, ptr %2, align 8, !tbaa !8
  ret i64 %19
}

; Function Attrs: alwaysinline mustprogress uwtable
define internal noundef i32 @_ZL18XXH_readLE32_alignPKv13XXH_alignment(ptr noundef %0, i32 noundef %1) #7 {
  %3 = alloca i32, align 4
  %4 = alloca ptr, align 8
  %5 = alloca i32, align 4
  store ptr %0, ptr %4, align 8, !tbaa !4
  store i32 %1, ptr %5, align 4, !tbaa !14
  %6 = load i32, ptr %5, align 4, !tbaa !14
  %7 = icmp eq i32 %6, 1
  br i1 %7, label %8, label %11

8:                                                ; preds = %2
  %9 = load ptr, ptr %4, align 8, !tbaa !4
  %10 = call noundef i32 @_ZL12XXH_readLE32PKv(ptr noundef %9)
  store i32 %10, ptr %3, align 4
  br label %14

11:                                               ; preds = %2
  %12 = load ptr, ptr %4, align 8, !tbaa !4
  %13 = load i32, ptr %12, align 4, !tbaa !10
  store i32 %13, ptr %3, align 4
  br label %14

14:                                               ; preds = %11, %8
  %15 = load i32, ptr %3, align 4
  ret i32 %15
}

; Function Attrs: alwaysinline mustprogress uwtable
define internal noundef i64 @_ZL12XXH_readLE64PKv(ptr noundef %0) #7 {
  %2 = alloca ptr, align 8
  store ptr %0, ptr %2, align 8, !tbaa !4
  %3 = load ptr, ptr %2, align 8, !tbaa !4
  %4 = call noundef i64 @_ZL10XXH_read64PKv(ptr noundef %3)
  ret i64 %4
}

; Function Attrs: mustprogress nounwind willreturn memory(read) uwtable
define internal noundef i64 @_ZL14XXH64_finalizemPKhm13XXH_alignment(i64 noundef %0, ptr noundef %1, i64 noundef %2, i32 noundef %3) #1 {
  %5 = alloca i64, align 8
  %6 = alloca ptr, align 8
  %7 = alloca i64, align 8
  %8 = alloca i32, align 4
  %9 = alloca i64, align 8
  store i64 %0, ptr %5, align 8, !tbaa !8
  store ptr %1, ptr %6, align 8, !tbaa !12
  store i64 %2, ptr %7, align 8, !tbaa !8
  store i32 %3, ptr %8, align 4, !tbaa !14
  %10 = load ptr, ptr %6, align 8, !tbaa !12
  %11 = icmp eq ptr %10, null
  br i1 %11, label %12, label %17

12:                                               ; preds = %4
  %13 = load i64, ptr %7, align 8, !tbaa !8
  %14 = icmp eq i64 %13, 0
  br i1 %14, label %16, label %15

15:                                               ; preds = %12
  unreachable

16:                                               ; preds = %12
  br label %17

17:                                               ; preds = %16, %4
  %18 = load i64, ptr %7, align 8, !tbaa !8
  %19 = and i64 %18, 31
  store i64 %19, ptr %7, align 8, !tbaa !8
  br label %20

20:                                               ; preds = %23, %17
  %21 = load i64, ptr %7, align 8, !tbaa !8
  %22 = icmp uge i64 %21, 8
  br i1 %22, label %23, label %39

23:                                               ; preds = %20
  call void @llvm.lifetime.start.p0(i64 8, ptr %9) #22
  %24 = load ptr, ptr %6, align 8, !tbaa !12
  %25 = load i32, ptr %8, align 4, !tbaa !14
  %26 = call noundef i64 @_ZL18XXH_readLE64_alignPKv13XXH_alignment(ptr noundef %24, i32 noundef %25)
  %27 = call noundef i64 @_ZL11XXH64_roundmm(i64 noundef 0, i64 noundef %26)
  store i64 %27, ptr %9, align 8, !tbaa !8
  %28 = load ptr, ptr %6, align 8, !tbaa !12
  %29 = getelementptr inbounds i8, ptr %28, i64 8
  store ptr %29, ptr %6, align 8, !tbaa !12
  %30 = load i64, ptr %9, align 8, !tbaa !8
  %31 = load i64, ptr %5, align 8, !tbaa !8
  %32 = xor i64 %31, %30
  store i64 %32, ptr %5, align 8, !tbaa !8
  %33 = load i64, ptr %5, align 8, !tbaa !8
  %34 = call i64 @llvm.fshl.i64(i64 %33, i64 %33, i64 27)
  %35 = mul i64 %34, -7046029288634856825
  %36 = add i64 %35, -8796714831421723037
  store i64 %36, ptr %5, align 8, !tbaa !8
  %37 = load i64, ptr %7, align 8, !tbaa !8
  %38 = sub i64 %37, 8
  store i64 %38, ptr %7, align 8, !tbaa !8
  call void @llvm.lifetime.end.p0(i64 8, ptr %9) #22
  br label %20, !llvm.loop !38

39:                                               ; preds = %20
  %40 = load i64, ptr %7, align 8, !tbaa !8
  %41 = icmp uge i64 %40, 4
  br i1 %41, label %42, label %58

42:                                               ; preds = %39
  %43 = load ptr, ptr %6, align 8, !tbaa !12
  %44 = load i32, ptr %8, align 4, !tbaa !14
  %45 = call noundef i32 @_ZL18XXH_readLE32_alignPKv13XXH_alignment(ptr noundef %43, i32 noundef %44)
  %46 = zext i32 %45 to i64
  %47 = mul i64 %46, -7046029288634856825
  %48 = load i64, ptr %5, align 8, !tbaa !8
  %49 = xor i64 %48, %47
  store i64 %49, ptr %5, align 8, !tbaa !8
  %50 = load ptr, ptr %6, align 8, !tbaa !12
  %51 = getelementptr inbounds i8, ptr %50, i64 4
  store ptr %51, ptr %6, align 8, !tbaa !12
  %52 = load i64, ptr %5, align 8, !tbaa !8
  %53 = call i64 @llvm.fshl.i64(i64 %52, i64 %52, i64 23)
  %54 = mul i64 %53, -4417276706812531889
  %55 = add i64 %54, 1609587929392839161
  store i64 %55, ptr %5, align 8, !tbaa !8
  %56 = load i64, ptr %7, align 8, !tbaa !8
  %57 = sub i64 %56, 4
  store i64 %57, ptr %7, align 8, !tbaa !8
  br label %58

58:                                               ; preds = %42, %39
  br label %59

59:                                               ; preds = %62, %58
  %60 = load i64, ptr %7, align 8, !tbaa !8
  %61 = icmp ugt i64 %60, 0
  br i1 %61, label %62, label %75

62:                                               ; preds = %59
  %63 = load ptr, ptr %6, align 8, !tbaa !12
  %64 = getelementptr inbounds nuw i8, ptr %63, i32 1
  store ptr %64, ptr %6, align 8, !tbaa !12
  %65 = load i8, ptr %63, align 1, !tbaa !29
  %66 = zext i8 %65 to i64
  %67 = mul i64 %66, 2870177450012600261
  %68 = load i64, ptr %5, align 8, !tbaa !8
  %69 = xor i64 %68, %67
  store i64 %69, ptr %5, align 8, !tbaa !8
  %70 = load i64, ptr %5, align 8, !tbaa !8
  %71 = call i64 @llvm.fshl.i64(i64 %70, i64 %70, i64 11)
  %72 = mul i64 %71, -7046029288634856825
  store i64 %72, ptr %5, align 8, !tbaa !8
  %73 = load i64, ptr %7, align 8, !tbaa !8
  %74 = add i64 %73, -1
  store i64 %74, ptr %7, align 8, !tbaa !8
  br label %59, !llvm.loop !39

75:                                               ; preds = %59
  %76 = load i64, ptr %5, align 8, !tbaa !8
  %77 = call noundef i64 @_ZL15XXH64_avalanchem(i64 noundef %76)
  ret i64 %77
}

; Function Attrs: mustprogress nounwind uwtable
define internal noundef i64 @_ZL16XXH64_mergeRoundmm(i64 noundef %0, i64 noundef %1) #4 {
  %3 = alloca i64, align 8
  %4 = alloca i64, align 8
  store i64 %0, ptr %3, align 8, !tbaa !8
  store i64 %1, ptr %4, align 8, !tbaa !8
  %5 = load i64, ptr %4, align 8, !tbaa !8
  %6 = call noundef i64 @_ZL11XXH64_roundmm(i64 noundef 0, i64 noundef %5)
  store i64 %6, ptr %4, align 8, !tbaa !8
  %7 = load i64, ptr %4, align 8, !tbaa !8
  %8 = load i64, ptr %3, align 8, !tbaa !8
  %9 = xor i64 %8, %7
  store i64 %9, ptr %3, align 8, !tbaa !8
  %10 = load i64, ptr %3, align 8, !tbaa !8
  %11 = mul i64 %10, -7046029288634856825
  %12 = add i64 %11, -8796714831421723037
  store i64 %12, ptr %3, align 8, !tbaa !8
  %13 = load i64, ptr %3, align 8, !tbaa !8
  ret i64 %13
}

; Function Attrs: mustprogress nounwind uwtable
define internal noundef i64 @_ZL11XXH64_roundmm(i64 noundef %0, i64 noundef %1) #4 {
  %3 = alloca i64, align 8
  %4 = alloca i64, align 8
  store i64 %0, ptr %3, align 8, !tbaa !8
  store i64 %1, ptr %4, align 8, !tbaa !8
  %5 = load i64, ptr %4, align 8, !tbaa !8
  %6 = mul i64 %5, -4417276706812531889
  %7 = load i64, ptr %3, align 8, !tbaa !8
  %8 = add i64 %7, %6
  store i64 %8, ptr %3, align 8, !tbaa !8
  %9 = load i64, ptr %3, align 8, !tbaa !8
  %10 = call i64 @llvm.fshl.i64(i64 %9, i64 %9, i64 31)
  store i64 %10, ptr %3, align 8, !tbaa !8
  %11 = load i64, ptr %3, align 8, !tbaa !8
  %12 = mul i64 %11, -7046029288634856825
  store i64 %12, ptr %3, align 8, !tbaa !8
  %13 = load i64, ptr %3, align 8, !tbaa !8
  ret i64 %13
}

; Function Attrs: alwaysinline mustprogress uwtable
define internal noundef i64 @_ZL18XXH_readLE64_alignPKv13XXH_alignment(ptr noundef %0, i32 noundef %1) #7 {
  %3 = alloca i64, align 8
  %4 = alloca ptr, align 8
  %5 = alloca i32, align 4
  store ptr %0, ptr %4, align 8, !tbaa !4
  store i32 %1, ptr %5, align 4, !tbaa !14
  %6 = load i32, ptr %5, align 4, !tbaa !14
  %7 = icmp eq i32 %6, 1
  br i1 %7, label %8, label %11

8:                                                ; preds = %2
  %9 = load ptr, ptr %4, align 8, !tbaa !4
  %10 = call noundef i64 @_ZL12XXH_readLE64PKv(ptr noundef %9)
  store i64 %10, ptr %3, align 8
  br label %14

11:                                               ; preds = %2
  %12 = load ptr, ptr %4, align 8, !tbaa !4
  %13 = load i64, ptr %12, align 8, !tbaa !8
  store i64 %13, ptr %3, align 8
  br label %14

14:                                               ; preds = %11, %8
  %15 = load i64, ptr %3, align 8
  ret i64 %15
}

; Function Attrs: alwaysinline mustprogress nounwind willreturn memory(read) uwtable
define internal noundef i64 @_ZL18XXH64_endian_alignPKhmm13XXH_alignment(ptr noundef %0, i64 noundef %1, i64 noundef %2, i32 noundef %3) #2 {
  %5 = alloca ptr, align 8
  %6 = alloca i64, align 8
  %7 = alloca i64, align 8
  %8 = alloca i32, align 4
  %9 = alloca i64, align 8
  %10 = alloca ptr, align 8
  %11 = alloca ptr, align 8
  %12 = alloca i64, align 8
  %13 = alloca i64, align 8
  %14 = alloca i64, align 8
  %15 = alloca i64, align 8
  store ptr %0, ptr %5, align 8, !tbaa !12
  store i64 %1, ptr %6, align 8, !tbaa !8
  store i64 %2, ptr %7, align 8, !tbaa !8
  store i32 %3, ptr %8, align 4, !tbaa !14
  call void @llvm.lifetime.start.p0(i64 8, ptr %9) #22
  %16 = load ptr, ptr %5, align 8, !tbaa !12
  %17 = icmp eq ptr %16, null
  br i1 %17, label %18, label %23

18:                                               ; preds = %4
  %19 = load i64, ptr %6, align 8, !tbaa !8
  %20 = icmp eq i64 %19, 0
  br i1 %20, label %22, label %21

21:                                               ; preds = %18
  unreachable

22:                                               ; preds = %18
  br label %23

23:                                               ; preds = %22, %4
  %24 = load i64, ptr %6, align 8, !tbaa !8
  %25 = icmp uge i64 %24, 32
  br i1 %25, label %26, label %98

26:                                               ; preds = %23
  call void @llvm.lifetime.start.p0(i64 8, ptr %10) #22
  %27 = load ptr, ptr %5, align 8, !tbaa !12
  %28 = load i64, ptr %6, align 8, !tbaa !8
  %29 = getelementptr inbounds nuw i8, ptr %27, i64 %28
  store ptr %29, ptr %10, align 8, !tbaa !12
  call void @llvm.lifetime.start.p0(i64 8, ptr %11) #22
  %30 = load ptr, ptr %10, align 8, !tbaa !12
  %31 = getelementptr inbounds i8, ptr %30, i64 -31
  store ptr %31, ptr %11, align 8, !tbaa !12
  call void @llvm.lifetime.start.p0(i64 8, ptr %12) #22
  %32 = load i64, ptr %7, align 8, !tbaa !8
  %33 = add i64 %32, -7046029288634856825
  %34 = add i64 %33, -4417276706812531889
  store i64 %34, ptr %12, align 8, !tbaa !8
  call void @llvm.lifetime.start.p0(i64 8, ptr %13) #22
  %35 = load i64, ptr %7, align 8, !tbaa !8
  %36 = add i64 %35, -4417276706812531889
  store i64 %36, ptr %13, align 8, !tbaa !8
  call void @llvm.lifetime.start.p0(i64 8, ptr %14) #22
  %37 = load i64, ptr %7, align 8, !tbaa !8
  %38 = add i64 %37, 0
  store i64 %38, ptr %14, align 8, !tbaa !8
  call void @llvm.lifetime.start.p0(i64 8, ptr %15) #22
  %39 = load i64, ptr %7, align 8, !tbaa !8
  %40 = sub i64 %39, -7046029288634856825
  store i64 %40, ptr %15, align 8, !tbaa !8
  br label %41

41:                                               ; preds = %70, %26
  %42 = load i64, ptr %12, align 8, !tbaa !8
  %43 = load ptr, ptr %5, align 8, !tbaa !12
  %44 = load i32, ptr %8, align 4, !tbaa !14
  %45 = call noundef i64 @_ZL18XXH_readLE64_alignPKv13XXH_alignment(ptr noundef %43, i32 noundef %44)
  %46 = call noundef i64 @_ZL11XXH64_roundmm(i64 noundef %42, i64 noundef %45)
  store i64 %46, ptr %12, align 8, !tbaa !8
  %47 = load ptr, ptr %5, align 8, !tbaa !12
  %48 = getelementptr inbounds i8, ptr %47, i64 8
  store ptr %48, ptr %5, align 8, !tbaa !12
  %49 = load i64, ptr %13, align 8, !tbaa !8
  %50 = load ptr, ptr %5, align 8, !tbaa !12
  %51 = load i32, ptr %8, align 4, !tbaa !14
  %52 = call noundef i64 @_ZL18XXH_readLE64_alignPKv13XXH_alignment(ptr noundef %50, i32 noundef %51)
  %53 = call noundef i64 @_ZL11XXH64_roundmm(i64 noundef %49, i64 noundef %52)
  store i64 %53, ptr %13, align 8, !tbaa !8
  %54 = load ptr, ptr %5, align 8, !tbaa !12
  %55 = getelementptr inbounds i8, ptr %54, i64 8
  store ptr %55, ptr %5, align 8, !tbaa !12
  %56 = load i64, ptr %14, align 8, !tbaa !8
  %57 = load ptr, ptr %5, align 8, !tbaa !12
  %58 = load i32, ptr %8, align 4, !tbaa !14
  %59 = call noundef i64 @_ZL18XXH_readLE64_alignPKv13XXH_alignment(ptr noundef %57, i32 noundef %58)
  %60 = call noundef i64 @_ZL11XXH64_roundmm(i64 noundef %56, i64 noundef %59)
  store i64 %60, ptr %14, align 8, !tbaa !8
  %61 = load ptr, ptr %5, align 8, !tbaa !12
  %62 = getelementptr inbounds i8, ptr %61, i64 8
  store ptr %62, ptr %5, align 8, !tbaa !12
  %63 = load i64, ptr %15, align 8, !tbaa !8
  %64 = load ptr, ptr %5, align 8, !tbaa !12
  %65 = load i32, ptr %8, align 4, !tbaa !14
  %66 = call noundef i64 @_ZL18XXH_readLE64_alignPKv13XXH_alignment(ptr noundef %64, i32 noundef %65)
  %67 = call noundef i64 @_ZL11XXH64_roundmm(i64 noundef %63, i64 noundef %66)
  store i64 %67, ptr %15, align 8, !tbaa !8
  %68 = load ptr, ptr %5, align 8, !tbaa !12
  %69 = getelementptr inbounds i8, ptr %68, i64 8
  store ptr %69, ptr %5, align 8, !tbaa !12
  br label %70

70:                                               ; preds = %41
  %71 = load ptr, ptr %5, align 8, !tbaa !12
  %72 = load ptr, ptr %11, align 8, !tbaa !12
  %73 = icmp ult ptr %71, %72
  br i1 %73, label %41, label %74, !llvm.loop !31

74:                                               ; preds = %70
  %75 = load i64, ptr %12, align 8, !tbaa !8
  %76 = call i64 @llvm.fshl.i64(i64 %75, i64 %75, i64 1)
  %77 = load i64, ptr %13, align 8, !tbaa !8
  %78 = call i64 @llvm.fshl.i64(i64 %77, i64 %77, i64 7)
  %79 = add i64 %76, %78
  %80 = load i64, ptr %14, align 8, !tbaa !8
  %81 = call i64 @llvm.fshl.i64(i64 %80, i64 %80, i64 12)
  %82 = add i64 %79, %81
  %83 = load i64, ptr %15, align 8, !tbaa !8
  %84 = call i64 @llvm.fshl.i64(i64 %83, i64 %83, i64 18)
  %85 = add i64 %82, %84
  store i64 %85, ptr %9, align 8, !tbaa !8
  %86 = load i64, ptr %9, align 8, !tbaa !8
  %87 = load i64, ptr %12, align 8, !tbaa !8
  %88 = call noundef i64 @_ZL16XXH64_mergeRoundmm(i64 noundef %86, i64 noundef %87)
  store i64 %88, ptr %9, align 8, !tbaa !8
  %89 = load i64, ptr %9, align 8, !tbaa !8
  %90 = load i64, ptr %13, align 8, !tbaa !8
  %91 = call noundef i64 @_ZL16XXH64_mergeRoundmm(i64 noundef %89, i64 noundef %90)
  store i64 %91, ptr %9, align 8, !tbaa !8
  %92 = load i64, ptr %9, align 8, !tbaa !8
  %93 = load i64, ptr %14, align 8, !tbaa !8
  %94 = call noundef i64 @_ZL16XXH64_mergeRoundmm(i64 noundef %92, i64 noundef %93)
  store i64 %94, ptr %9, align 8, !tbaa !8
  %95 = load i64, ptr %9, align 8, !tbaa !8
  %96 = load i64, ptr %15, align 8, !tbaa !8
  %97 = call noundef i64 @_ZL16XXH64_mergeRoundmm(i64 noundef %95, i64 noundef %96)
  store i64 %97, ptr %9, align 8, !tbaa !8
  call void @llvm.lifetime.end.p0(i64 8, ptr %15) #22
  call void @llvm.lifetime.end.p0(i64 8, ptr %14) #22
  call void @llvm.lifetime.end.p0(i64 8, ptr %13) #22
  call void @llvm.lifetime.end.p0(i64 8, ptr %12) #22
  call void @llvm.lifetime.end.p0(i64 8, ptr %11) #22
  call void @llvm.lifetime.end.p0(i64 8, ptr %10) #22
  br label %101

98:                                               ; preds = %23
  %99 = load i64, ptr %7, align 8, !tbaa !8
  %100 = add i64 %99, 2870177450012600261
  store i64 %100, ptr %9, align 8, !tbaa !8
  br label %101

101:                                              ; preds = %98, %74
  %102 = load i64, ptr %6, align 8, !tbaa !8
  %103 = load i64, ptr %9, align 8, !tbaa !8
  %104 = add i64 %103, %102
  store i64 %104, ptr %9, align 8, !tbaa !8
  %105 = load i64, ptr %9, align 8, !tbaa !8
  %106 = load ptr, ptr %5, align 8, !tbaa !12
  %107 = load i64, ptr %6, align 8, !tbaa !8
  %108 = load i32, ptr %8, align 4, !tbaa !14
  %109 = call noundef i64 @_ZL14XXH64_finalizemPKhm13XXH_alignment(i64 noundef %105, ptr noundef %106, i64 noundef %107, i32 noundef %108) #21
  call void @llvm.lifetime.end.p0(i64 8, ptr %9) #22
  ret i64 %109
}

; Function Attrs: mustprogress nounwind willreturn memory(read) uwtable
define i64 @ROCKSDB_XXH64(ptr noundef captures(none) %0, i64 noundef %1, i64 noundef %2) #1 {
  %4 = alloca ptr, align 8
  %5 = alloca i64, align 8
  %6 = alloca i64, align 8
  store ptr %0, ptr %4, align 8, !tbaa !4
  store i64 %1, ptr %5, align 8, !tbaa !8
  store i64 %2, ptr %6, align 8, !tbaa !8
  %7 = load ptr, ptr %4, align 8, !tbaa !4
  %8 = load i64, ptr %5, align 8, !tbaa !8
  %9 = load i64, ptr %6, align 8, !tbaa !8
  %10 = call noundef i64 @_ZL18XXH64_endian_alignPKhmm13XXH_alignment(ptr noundef %7, i64 noundef %8, i64 noundef %9, i32 noundef 1) #21
  ret i64 %10
}