; Function Attrs: mustprogress nofree norecurse nosync nounwind willreturn memory(argmem: read) uwtable
define i64 @ROCKSDB_XXH64(ptr noundef readonly captures(none) %0, i64 noundef %1, i64 noundef %2) local_unnamed_addr #9 {
  %4 = icmp eq ptr %0, null
  br i1 %4, label %.thread50.i, label %5

5:                                                ; preds = %3
  %6 = icmp ugt i64 %1, 31
  br i1 %6, label %7, label %_ZL18XXH64_endian_alignPKhmm13XXH_alignment.exit

7:                                                ; preds = %5
  %8 = getelementptr inbounds nuw i8, ptr %0, i64 %1
  %9 = getelementptr inbounds i8, ptr %8, i64 -31
  %10 = add i64 %2, 6983438078262162902
  %11 = add i64 %2, -4417276706812531889
  %12 = add i64 %2, 7046029288634856825
  br label %13

13:                                               ; preds = %13, %7
  %.049.i = phi ptr [ %0, %7 ], [ %33, %13 ]
  %.048.i = phi i64 [ %10, %7 ], [ %17, %13 ]
  %.047.i = phi i64 [ %11, %7 ], [ %22, %13 ]
  %.046.i = phi i64 [ %2, %7 ], [ %27, %13 ]
  %.0.i = phi i64 [ %12, %7 ], [ %32, %13 ]
  %.049.i.val = load i64, ptr %.049.i, align 1, !tbaa !19
  %14 = mul i64 %.049.i.val, -4417276706812531889
  %15 = add i64 %14, %.048.i
  %16 = tail call i64 @llvm.fshl.i64(i64 %15, i64 %15, i64 31)
  %17 = mul i64 %16, -7046029288634856825
  %18 = getelementptr inbounds nuw i8, ptr %.049.i, i64 8
  %.val = load i64, ptr %18, align 1, !tbaa !19
  %19 = mul i64 %.val, -4417276706812531889
  %20 = add i64 %19, %.047.i
  %21 = tail call i64 @llvm.fshl.i64(i64 %20, i64 %20, i64 31)
  %22 = mul i64 %21, -7046029288634856825
  %23 = getelementptr inbounds nuw i8, ptr %.049.i, i64 16
  %.val6 = load i64, ptr %23, align 1, !tbaa !19
  %24 = mul i64 %.val6, -4417276706812531889
  %25 = add i64 %24, %.046.i
  %26 = tail call i64 @llvm.fshl.i64(i64 %25, i64 %25, i64 31)
  %27 = mul i64 %26, -7046029288634856825
  %28 = getelementptr inbounds nuw i8, ptr %.049.i, i64 24
  %.val7 = load i64, ptr %28, align 1, !tbaa !19
  %29 = mul i64 %.val7, -4417276706812531889
  %30 = add i64 %29, %.0.i
  %31 = tail call i64 @llvm.fshl.i64(i64 %30, i64 %30, i64 31)
  %32 = mul i64 %31, -7046029288634856825
  %33 = getelementptr inbounds nuw i8, ptr %.049.i, i64 32
  %34 = icmp ult ptr %33, %9
  br i1 %34, label %13, label %_ZL18XXH64_endian_alignPKhmm13XXH_alignment.exit.thread, !llvm.loop !21

_ZL18XXH64_endian_alignPKhmm13XXH_alignment.exit.thread: ; preds = %13
  %35 = tail call i64 @llvm.fshl.i64(i64 %17, i64 %17, i64 1)
  %36 = tail call i64 @llvm.fshl.i64(i64 %22, i64 %22, i64 7)
  %37 = add i64 %36, %35
  %38 = tail call i64 @llvm.fshl.i64(i64 %27, i64 %27, i64 12)
  %39 = add i64 %37, %38
  %40 = tail call i64 @llvm.fshl.i64(i64 %32, i64 %32, i64 18)
  %41 = add i64 %39, %40
  %42 = mul i64 %16, -2381459717836149591
  %43 = tail call i64 @llvm.fshl.i64(i64 %42, i64 %42, i64 31)
  %44 = mul i64 %43, -7046029288634856825
  %45 = xor i64 %41, %44
  %46 = mul i64 %45, -7046029288634856825
  %47 = add i64 %46, -8796714831421723037
  %48 = mul i64 %21, -2381459717836149591
  %49 = tail call i64 @llvm.fshl.i64(i64 %48, i64 %48, i64 31)
  %50 = mul i64 %49, -7046029288634856825
  %51 = xor i64 %47, %50
  %52 = mul i64 %51, -7046029288634856825
  %53 = add i64 %52, -8796714831421723037
  %54 = mul i64 %26, -2381459717836149591
  %55 = tail call i64 @llvm.fshl.i64(i64 %54, i64 %54, i64 31)
  %56 = mul i64 %55, -7046029288634856825
  %57 = xor i64 %53, %56
  %58 = mul i64 %57, -7046029288634856825
  %59 = add i64 %58, -8796714831421723037
  %60 = mul i64 %31, -2381459717836149591
  %61 = tail call i64 @llvm.fshl.i64(i64 %60, i64 %60, i64 31)
  %62 = mul i64 %61, -7046029288634856825
  %63 = xor i64 %59, %62
  %64 = mul i64 %63, -7046029288634856825
  %65 = add i64 %64, -8796714831421723037
  br label %69

_ZL18XXH64_endian_alignPKhmm13XXH_alignment.exit: ; preds = %5
  %66 = add i64 %2, 2870177450012600261
  br label %69

.thread50.i:                                      ; preds = %3
  %67 = add i64 %2, 2870177450012600261
  %68 = icmp eq i64 %1, 0
  tail call void @llvm.assume(i1 %68)
  br label %_ZL14XXH64_finalizemPKhm13XXH_alignment.exit

69:                                               ; preds = %_ZL18XXH64_endian_alignPKhmm13XXH_alignment.exit, %_ZL18XXH64_endian_alignPKhmm13XXH_alignment.exit.thread
  %.pn = phi i64 [ %65, %_ZL18XXH64_endian_alignPKhmm13XXH_alignment.exit.thread ], [ %66, %_ZL18XXH64_endian_alignPKhmm13XXH_alignment.exit ]
  %.1.i11 = phi ptr [ %33, %_ZL18XXH64_endian_alignPKhmm13XXH_alignment.exit.thread ], [ %0, %_ZL18XXH64_endian_alignPKhmm13XXH_alignment.exit ]
  %70 = add i64 %.pn, %1
  %71 = and i64 %1, 31
  %72 = icmp samesign ugt i64 %71, 7
  br i1 %72, label %_ZL18XXH_readLE64_alignPKv13XXH_alignment.exit.i, label %._crit_edge.i

_ZL18XXH_readLE64_alignPKv13XXH_alignment.exit.i: ; preds = %69, %_ZL18XXH_readLE64_alignPKv13XXH_alignment.exit.i
  %.034.i = phi i64 [ %80, %_ZL18XXH_readLE64_alignPKv13XXH_alignment.exit.i ], [ %70, %69 ]
  %.02333.i = phi ptr [ %76, %_ZL18XXH_readLE64_alignPKv13XXH_alignment.exit.i ], [ %.1.i11, %69 ]
  %.02632.i = phi i64 [ %81, %_ZL18XXH_readLE64_alignPKv13XXH_alignment.exit.i ], [ %71, %69 ]
  %.0.i30.i = load i64, ptr %.02333.i, align 1, !tbaa !19
  %73 = mul i64 %.0.i30.i, -4417276706812531889
  %74 = tail call i64 @llvm.fshl.i64(i64 %73, i64 %73, i64 31)
  %75 = mul i64 %74, -7046029288634856825
  %76 = getelementptr inbounds nuw i8, ptr %.02333.i, i64 8
  %77 = xor i64 %75, %.034.i
  %78 = tail call i64 @llvm.fshl.i64(i64 %77, i64 %77, i64 27)
  %79 = mul i64 %78, -7046029288634856825
  %80 = add i64 %79, -8796714831421723037
  %81 = add nsw i64 %.02632.i, -8
  %82 = icmp ugt i64 %81, 7
  br i1 %82, label %_ZL18XXH_readLE64_alignPKv13XXH_alignment.exit.i, label %._crit_edge.i, !llvm.loop !22

._crit_edge.i:                                    ; preds = %_ZL18XXH_readLE64_alignPKv13XXH_alignment.exit.i, %69
  %.026.lcssa.i = phi i64 [ %71, %69 ], [ %81, %_ZL18XXH_readLE64_alignPKv13XXH_alignment.exit.i ]
  %.023.lcssa.i = phi ptr [ %.1.i11, %69 ], [ %76, %_ZL18XXH_readLE64_alignPKv13XXH_alignment.exit.i ]
  %.0.lcssa.i = phi i64 [ %70, %69 ], [ %80, %_ZL18XXH_readLE64_alignPKv13XXH_alignment.exit.i ]
  %83 = icmp samesign ugt i64 %.026.lcssa.i, 3
  br i1 %83, label %_ZL18XXH_readLE32_alignPKv13XXH_alignment.exit.i, label %92

_ZL18XXH_readLE32_alignPKv13XXH_alignment.exit.i: ; preds = %._crit_edge.i
  %.0.i.i = load i32, ptr %.023.lcssa.i, align 1, !tbaa !4
  %84 = zext i32 %.0.i.i to i64
  %85 = mul i64 %84, -7046029288634856825
  %86 = xor i64 %85, %.0.lcssa.i
  %87 = getelementptr inbounds nuw i8, ptr %.023.lcssa.i, i64 4
  %88 = tail call i64 @llvm.fshl.i64(i64 %86, i64 %86, i64 23)
  %89 = mul i64 %88, -4417276706812531889
  %90 = add i64 %89, 1609587929392839161
  %91 = add nsw i64 %.026.lcssa.i, -4
  br label %92

92:                                               ; preds = %_ZL18XXH_readLE32_alignPKv13XXH_alignment.exit.i, %._crit_edge.i
  %.127.i = phi i64 [ %91, %_ZL18XXH_readLE32_alignPKv13XXH_alignment.exit.i ], [ %.026.lcssa.i, %._crit_edge.i ]
  %.124.i = phi ptr [ %87, %_ZL18XXH_readLE32_alignPKv13XXH_alignment.exit.i ], [ %.023.lcssa.i, %._crit_edge.i ]
  %.1.i8 = phi i64 [ %90, %_ZL18XXH_readLE32_alignPKv13XXH_alignment.exit.i ], [ %.0.lcssa.i, %._crit_edge.i ]
  %.not37.i = icmp eq i64 %.127.i, 0
  br i1 %.not37.i, label %_ZL14XXH64_finalizemPKhm13XXH_alignment.exit, label %.lr.ph.i

.lr.ph.i:                                         ; preds = %92, %.lr.ph.i
  %.240.i = phi i64 [ %99, %.lr.ph.i ], [ %.1.i8, %92 ]
  %.22539.i = phi ptr [ %93, %.lr.ph.i ], [ %.124.i, %92 ]
  %.22838.i = phi i64 [ %100, %.lr.ph.i ], [ %.127.i, %92 ]
  %93 = getelementptr inbounds nuw i8, ptr %.22539.i, i64 1
  %94 = load i8, ptr %.22539.i, align 1, !tbaa !12
  %95 = zext i8 %94 to i64
  %96 = mul i64 %95, 2870177450012600261
  %97 = xor i64 %96, %.240.i
  %98 = tail call i64 @llvm.fshl.i64(i64 %97, i64 %97, i64 11)
  %99 = mul i64 %98, -7046029288634856825
  %100 = add nsw i64 %.22838.i, -1
  %.not.i = icmp eq i64 %100, 0
  br i1 %.not.i, label %_ZL14XXH64_finalizemPKhm13XXH_alignment.exit, label %.lr.ph.i, !llvm.loop !23

_ZL14XXH64_finalizemPKhm13XXH_alignment.exit:     ; preds = %.lr.ph.i, %.thread50.i, %92
  %.2.lcssa.i = phi i64 [ %.1.i8, %92 ], [ %67, %.thread50.i ], [ %99, %.lr.ph.i ]
  %101 = lshr i64 %.2.lcssa.i, 33
  %102 = xor i64 %101, %.2.lcssa.i
  %103 = mul i64 %102, -4417276706812531889
  %104 = lshr i64 %103, 29
  %105 = xor i64 %104, %103
  %106 = mul i64 %105, 1609587929392839161
  %107 = lshr i64 %106, 32
  %108 = xor i64 %107, %106
  ret i64 %108
}